target datalayout = "e-m:e-p270:32:32-p271:32:32-p272:64:64-i64:64-i128:128-f80:128-n8:16:32:64-S128"
target triple = "x86_64-unknown-linux-gnu"

%struct.ChardevCommon = type { ptr, i8, i8 }
%struct.ChardevFile = type { ptr, i8, i8, ptr, ptr, i8, i8 }

@.str.10 = private unnamed_addr constant [8 x i8] c"logfile\00", align 1
@.str.11 = private unnamed_addr constant [10 x i8] c"logappend\00", align 1
@.str.12 = private unnamed_addr constant [3 x i8] c"in\00", align 1
@.str.13 = private unnamed_addr constant [4 x i8] c"out\00", align 1
@.str.14 = private unnamed_addr constant [7 x i8] c"append\00", align 1

; Function Attrs: nounwind sspstrong uwtable
define dso_local zeroext i1 @visit_type_ChardevCommon_members(ptr noundef %v, ptr noundef %obj, ptr noundef %errp) #0 {
entry:
  %retval = alloca i1, align 1
  %v.addr = alloca ptr, align 8
  %obj.addr = alloca ptr, align 8
  %errp.addr = alloca ptr, align 8
  %has_logfile = alloca i8, align 1
  store ptr %v, ptr %v.addr, align 8
  store ptr %obj, ptr %obj.addr, align 8
  store ptr %errp, ptr %errp.addr, align 8
  %0 = load ptr, ptr %obj.addr, align 8
  %logfile = getelementptr inbounds %struct.ChardevCommon, ptr %0, i32 0, i32 0
  %1 = load ptr, ptr %logfile, align 8
  %tobool = icmp ne ptr %1, null
  %lnot = xor i1 %tobool, true
  %lnot1 = xor i1 %lnot, true
  %frombool = zext i1 %lnot1 to i8
  store i8 %frombool, ptr %has_logfile, align 1
  %2 = load ptr, ptr %v.addr, align 8
  %call = call zeroext i1 @visit_optional(ptr noundef %2, ptr noundef @.str.10, ptr noundef %has_logfile)
  br i1 %call, label %if.then, label %if.end5

if.then:                                          ; preds = %entry
  %3 = load ptr, ptr %v.addr, align 8
  %4 = load ptr, ptr %obj.addr, align 8
  %logfile2 = getelementptr inbounds %struct.ChardevCommon, ptr %4, i32 0, i32 0
  %5 = load ptr, ptr %errp.addr, align 8
  %call3 = call zeroext i1 @visit_type_str(ptr noundef %3, ptr noundef @.str.10, ptr noundef %logfile2, ptr noundef %5)
  br i1 %call3, label %if.end, label %if.then4

if.then4:                                         ; preds = %if.then
  store i1 false, ptr %retval, align 1
  br label %return

if.end:                                           ; preds = %if.then
  br label %if.end5

if.end5:                                          ; preds = %if.end, %entry
  %6 = load ptr, ptr %v.addr, align 8
  %7 = load ptr, ptr %obj.addr, align 8
  %has_logappend = getelementptr inbounds %struct.ChardevCommon, ptr %7, i32 0, i32 1
  %call6 = call zeroext i1 @visit_optional(ptr noundef %6, ptr noundef @.str.11, ptr noundef %has_logappend)
  br i1 %call6, label %if.then7, label %if.end11

if.then7:                                         ; preds = %if.end5
  %8 = load ptr, ptr %v.addr, align 8
  %9 = load ptr, ptr %obj.addr, align 8
  %logappend = getelementptr inbounds %struct.ChardevCommon, ptr %9, i32 0, i32 2
  %10 = load ptr, ptr %errp.addr, align 8
  %call8 = call zeroext i1 @visit_type_bool(ptr noundef %8, ptr noundef @.str.11, ptr noundef %logappend, ptr noundef %10)
  br i1 %call8, label %if.end10, label %if.then9

if.then9:                                         ; preds = %if.then7
  store i1 false, ptr %retval, align 1
  br label %return

if.end10:                                         ; preds = %if.then7
  br label %if.end11

if.end11:                                         ; preds = %if.end10, %if.end5
  store i1 true, ptr %retval, align 1
  br label %return

return:                                           ; preds = %if.end11, %if.then9, %if.then4
  %11 = load i1, ptr %retval, align 1
  ret i1 %11
}

; Function Attrs: nounwind sspstrong uwtable
define dso_local zeroext i1 @visit_type_ChardevFile_members(ptr noundef %v, ptr noundef %obj, ptr noundef %errp) #0 {
entry:
  %retval = alloca i1, align 1
  %v.addr = alloca ptr, align 8
  %obj.addr = alloca ptr, align 8
  %errp.addr = alloca ptr, align 8
  %has_in = alloca i8, align 1
  store ptr %v, ptr %v.addr, align 8
  store ptr %obj, ptr %obj.addr, align 8
  store ptr %errp, ptr %errp.addr, align 8
  %0 = load ptr, ptr %obj.addr, align 8
  %in = getelementptr inbounds %struct.ChardevFile, ptr %0, i32 0, i32 3
  %1 = load ptr, ptr %in, align 8
  %tobool = icmp ne ptr %1, null
  %lnot = xor i1 %tobool, true
  %lnot1 = xor i1 %lnot, true
  %frombool = zext i1 %lnot1 to i8
  store i8 %frombool, ptr %has_in, align 1
  %2 = load ptr, ptr %v.addr, align 8
  %3 = load ptr, ptr %obj.addr, align 8
  %4 = load ptr, ptr %errp.addr, align 8
  %call = call zeroext i1 @visit_type_ChardevCommon_members(ptr noundef %2, ptr noundef %3, ptr noundef %4)
  br i1 %call, label %if.end, label %if.then

if.then:                                          ; preds = %entry
  store i1 false, ptr %retval, align 1
  br label %return

if.end:                                           ; preds = %entry
  %5 = load ptr, ptr %v.addr, align 8
  %call2 = call zeroext i1 @visit_optional(ptr noundef %5, ptr noundef @.str.12, ptr noundef %has_in)
  br i1 %call2, label %if.then3, label %if.end8

if.then3:                                         ; preds = %if.end
  %6 = load ptr, ptr %v.addr, align 8
  %7 = load ptr, ptr %obj.addr, align 8
  %in4 = getelementptr inbounds %struct.ChardevFile, ptr %7, i32 0, i32 3
  %8 = load ptr, ptr %errp.addr, align 8
  %call5 = call zeroext i1 @visit_type_str(ptr noundef %6, ptr noundef @.str.12, ptr noundef %in4, ptr noundef %8)
  br i1 %call5, label %if.end7, label %if.then6

if.then6:                                         ; preds = %if.then3
  store i1 false, ptr %retval, align 1
  br label %return

if.end7:                                          ; preds = %if.then3
  br label %if.end8

if.end8:                                          ; preds = %if.end7, %if.end
  %9 = load ptr, ptr %v.addr, align 8
  %10 = load ptr, ptr %obj.addr, align 8
  %out = getelementptr inbounds %struct.ChardevFile, ptr %10, i32 0, i32 4
  %11 = load ptr, ptr %errp.addr, align 8
  %call9 = call zeroext i1 @visit_type_str(ptr noundef %9, ptr noundef @.str.13, ptr noundef %out, ptr noundef %11)
  br i1 %call9, label %if.end11, label %if.then10

if.then10:                                        ; preds = %if.end8
  store i1 false, ptr %retval, align 1
  br label %return

if.end11:                                         ; preds = %if.end8
  %12 = load ptr, ptr %v.addr, align 8
  %13 = load ptr, ptr %obj.addr, align 8
  %has_append = getelementptr inbounds %struct.ChardevFile, ptr %13, i32 0, i32 5
  %call12 = call zeroext i1 @visit_optional(ptr noundef %12, ptr noundef @.str.14, ptr noundef %has_append)
  br i1 %call12, label %if.then13, label %if.end17

if.then13:                                        ; preds = %if.end11
  %14 = load ptr, ptr %v.addr, align 8
  %15 = load ptr, ptr %obj.addr, align 8
  %append = getelementptr inbounds %struct.ChardevFile, ptr %15, i32 0, i32 6
  %16 = load ptr, ptr %errp.addr, align 8
  %call14 = call zeroext i1 @visit_type_bool(ptr noundef %14, ptr noundef @.str.14, ptr noundef %append, ptr noundef %16)
  br i1 %call14, label %if.end16, label %if.then15

if.then15:                                        ; preds = %if.then13
  store i1 false, ptr %retval, align 1
  br label %return

if.end16:                                         ; preds = %if.then13
  br label %if.end17

if.end17:                                         ; preds = %if.end16, %if.end11
  store i1 true, ptr %retval, align 1
  br label %return

return:                                           ; preds = %if.end17, %if.then15, %if.then10, %if.then6, %if.then
  %17 = load i1, ptr %retval, align 1
  ret i1 %17
}